; Function Attrs: nofree norecurse nosync nounwind memory(argmem: readwrite) uwtable
define internal void @PredictorAdd7_SSE2(ptr noundef readonly captures(none) %0, ptr noundef readonly captures(none) %1, i32 noundef %2, ptr noalias noundef captures(none) %3) #3 {
  %5 = icmp sgt i32 %2, 0
  br i1 %5, label %.lr.ph.preheader, label %._crit_edge

.lr.ph.preheader:                                 ; preds = %4
  %wide.trip.count = zext nneg i32 %2 to i64
  %scevgep = getelementptr i8, ptr %3, i64 -4
  %load_initial = load i32, ptr %scevgep, align 4
  br label %.lr.ph

.lr.ph:                                           ; preds = %.lr.ph.preheader, %.lr.ph
  %store_forwarded = phi i32 [ %load_initial, %.lr.ph.preheader ], [ %30, %.lr.ph ]
  %indvars.iv = phi i64 [ 0, %.lr.ph.preheader ], [ %indvars.iv.next, %.lr.ph ]
  %6 = getelementptr i32, ptr %3, i64 %indvars.iv
  %7 = getelementptr inbounds nuw i32, ptr %1, i64 %indvars.iv
  %8 = load i32, ptr %7, align 4, !tbaa !7
  %9 = insertelement <4 x i32> <i32 poison, i32 0, i32 0, i32 0>, i32 %store_forwarded, i64 0
  %10 = insertelement <4 x i32> <i32 poison, i32 0, i32 0, i32 0>, i32 %8, i64 0
  %11 = bitcast <4 x i32> %9 to <16 x i8>
  %12 = bitcast <4 x i32> %10 to <16 x i8>
  %13 = tail call <16 x i8> @llvm.x86.sse2.pavg.b(<16 x i8> %11, <16 x i8> %12)
  %14 = xor <4 x i32> %10, %9
  %15 = bitcast <4 x i32> %14 to <16 x i8>
  %16 = and <16 x i8> %15, <i8 1, i8 1, i8 1, i8 1, i8 poison, i8 poison, i8 poison, i8 poison, i8 poison, i8 poison, i8 poison, i8 poison, i8 poison, i8 poison, i8 poison, i8 poison>
  %17 = sub <16 x i8> %13, %16
  %18 = bitcast <16 x i8> %17 to <4 x i32>
  %19 = extractelement <4 x i32> %18, i64 0
  %20 = getelementptr inbounds nuw i32, ptr %0, i64 %indvars.iv
  %21 = load i32, ptr %20, align 4, !tbaa !7
  %22 = and i32 %21, -16711936
  %23 = and i32 %19, -16711936
  %24 = add i32 %23, %22
  %25 = and i32 %21, 16711935
  %26 = and i32 %19, 16711935
  %27 = add nuw nsw i32 %26, %25
  %28 = and i32 %24, -16711936
  %29 = and i32 %27, 16711935
  %30 = or disjoint i32 %28, %29
  store i32 %30, ptr %6, align 4, !tbaa !7
  %indvars.iv.next = add nuw nsw i64 %indvars.iv, 1
  %exitcond.not = icmp eq i64 %indvars.iv.next, %wide.trip.count
  br i1 %exitcond.not, label %._crit_edge, label %.lr.ph, !llvm.loop !18

._crit_edge:                                      ; preds = %.lr.ph, %4
  ret void
}